; Function Attrs: mustprogress uwtable
define dso_local void @_ZN14cmUVPipeBuffer7UVAllocEP11uv_handle_smP8uv_buf_t(ptr nocapture noundef readonly %0, i64 noundef %1, ptr nocapture noundef writeonly %2) #0 align 2 {
  %4 = load ptr, ptr %0, align 8
  %5 = getelementptr inbounds i8, ptr %4, i64 16
  tail call void @_ZNSt6vectorIcSaIcEE6resizeEm(ptr noundef nonnull align 8 dereferenceable(24) %5, i64 noundef %1)
  %6 = load ptr, ptr %5, align 8
  store ptr %6, ptr %2, align 8
  %7 = getelementptr inbounds i8, ptr %4, i64 24
  %8 = load ptr, ptr %7, align 8
  %9 = ptrtoint ptr %8 to i64
  %10 = ptrtoint ptr %6 to i64
  %11 = sub i64 %9, %10
  %12 = getelementptr inbounds i8, ptr %2, i64 8
  store i64 %11, ptr %12, align 8
  ret void
}